target datalayout = "e-m:e-p270:32:32-p271:32:32-p272:64:64-i64:64-i128:128-f80:128-n8:16:32:64-S128"
target triple = "x86_64-pc-linux-gnu"

%"class.url::CanonOutputT" = type { ptr, ptr, i32, i32 }
%"struct.url::Component" = type { i32, i32 }
%"struct.url::CanonHostInfo" = type { i32, i32, %"struct.url::Component", [16 x i8] }

; Function Attrs: mustprogress uwtable
define linkonce_odr noundef zeroext i1 @_ZN3url12CanonOutputTIcE4GrowEi(ptr noundef nonnull align 8 dereferenceable(24) %0, i32 noundef %1) #0 comdat align 2 {
  %3 = alloca i1, align 1
  %4 = alloca ptr, align 8
  %5 = alloca i32, align 4
  %6 = alloca i32, align 4
  %7 = alloca i32, align 4
  store ptr %0, ptr %4, align 8, !tbaa !8
  store i32 %1, ptr %5, align 4, !tbaa !10
  %8 = load ptr, ptr %4, align 8
  call void @llvm.lifetime.start.p0(i64 4, ptr %6) #8
  %9 = getelementptr inbounds nuw %"class.url::CanonOutputT", ptr %8, i32 0, i32 2
  %10 = load i32, ptr %9, align 8, !tbaa !18
  %11 = icmp eq i32 %10, 0
  br i1 %11, label %12, label %13

12:                                               ; preds = %2
  br label %16

13:                                               ; preds = %2
  %14 = getelementptr inbounds nuw %"class.url::CanonOutputT", ptr %8, i32 0, i32 2
  %15 = load i32, ptr %14, align 8, !tbaa !18
  br label %16

16:                                               ; preds = %13, %12
  %17 = phi i32 [ 16, %12 ], [ %15, %13 ]
  store i32 %17, ptr %6, align 4, !tbaa !10
  br label %18

18:                                               ; preds = %25, %16
  %19 = load i32, ptr %6, align 4, !tbaa !10
  %20 = icmp sge i32 %19, 1073741824
  br i1 %20, label %21, label %22

21:                                               ; preds = %18
  store i1 false, ptr %3, align 1
  store i32 1, ptr %7, align 4
  br label %37

22:                                               ; preds = %18
  %23 = load i32, ptr %6, align 4, !tbaa !10
  %24 = mul nsw i32 %23, 2
  store i32 %24, ptr %6, align 4, !tbaa !10
  br label %25

25:                                               ; preds = %22
  %26 = load i32, ptr %6, align 4, !tbaa !10
  %27 = getelementptr inbounds nuw %"class.url::CanonOutputT", ptr %8, i32 0, i32 2
  %28 = load i32, ptr %27, align 8, !tbaa !18
  %29 = load i32, ptr %5, align 4, !tbaa !10
  %30 = add nsw i32 %28, %29
  %31 = icmp slt i32 %26, %30
  br i1 %31, label %18, label %32, !llvm.loop !66

32:                                               ; preds = %25
  %33 = load i32, ptr %6, align 4, !tbaa !10
  %34 = load ptr, ptr %8, align 8, !tbaa !67
  %35 = getelementptr inbounds ptr, ptr %34, i64 2
  %36 = load ptr, ptr %35, align 8
  call void %36(ptr noundef nonnull align 8 dereferenceable(24) %8, i32 noundef %33)
  store i1 true, ptr %3, align 1
  store i32 1, ptr %7, align 4
  br label %37

37:                                               ; preds = %32, %21
  call void @llvm.lifetime.end.p0(i64 4, ptr %6) #8
  %38 = load i1, ptr %3, align 1
  ret i1 %38
}

; Function Attrs: mustprogress uwtable
define linkonce_odr void @_ZN3url12CanonOutputTIcE9push_backEc(ptr noundef nonnull align 8 dereferenceable(24) %0, i8 noundef signext %1) #0 comdat align 2 {
  %3 = alloca ptr, align 8
  %4 = alloca i8, align 1
  store ptr %0, ptr %3, align 8, !tbaa !8
  store i8 %1, ptr %4, align 1, !tbaa !12
  %5 = load ptr, ptr %3, align 8
  %6 = getelementptr inbounds nuw %"class.url::CanonOutputT", ptr %5, i32 0, i32 3
  %7 = load i32, ptr %6, align 4, !tbaa !16
  %8 = getelementptr inbounds nuw %"class.url::CanonOutputT", ptr %5, i32 0, i32 2
  %9 = load i32, ptr %8, align 8, !tbaa !18
  %10 = icmp slt i32 %7, %9
  br i1 %10, label %11, label %22

11:                                               ; preds = %2
  %12 = load i8, ptr %4, align 1, !tbaa !12
  %13 = getelementptr inbounds nuw %"class.url::CanonOutputT", ptr %5, i32 0, i32 1
  %14 = load ptr, ptr %13, align 8, !tbaa !19
  %15 = getelementptr inbounds nuw %"class.url::CanonOutputT", ptr %5, i32 0, i32 3
  %16 = load i32, ptr %15, align 4, !tbaa !16
  %17 = sext i32 %16 to i64
  %18 = getelementptr inbounds i8, ptr %14, i64 %17
  store i8 %12, ptr %18, align 1, !tbaa !12
  %19 = getelementptr inbounds nuw %"class.url::CanonOutputT", ptr %5, i32 0, i32 3
  %20 = load i32, ptr %19, align 4, !tbaa !16
  %21 = add nsw i32 %20, 1
  store i32 %21, ptr %19, align 4, !tbaa !16
  br label %36

22:                                               ; preds = %2
  %23 = call noundef zeroext i1 @_ZN3url12CanonOutputTIcE4GrowEi(ptr noundef nonnull align 8 dereferenceable(24) %5, i32 noundef 1)
  br i1 %23, label %25, label %24

24:                                               ; preds = %22
  br label %36

25:                                               ; preds = %22
  %26 = load i8, ptr %4, align 1, !tbaa !12
  %27 = getelementptr inbounds nuw %"class.url::CanonOutputT", ptr %5, i32 0, i32 1
  %28 = load ptr, ptr %27, align 8, !tbaa !19
  %29 = getelementptr inbounds nuw %"class.url::CanonOutputT", ptr %5, i32 0, i32 3
  %30 = load i32, ptr %29, align 4, !tbaa !16
  %31 = sext i32 %30 to i64
  %32 = getelementptr inbounds i8, ptr %28, i64 %31
  store i8 %26, ptr %32, align 1, !tbaa !12
  %33 = getelementptr inbounds nuw %"class.url::CanonOutputT", ptr %5, i32 0, i32 3
  %34 = load i32, ptr %33, align 4, !tbaa !16
  %35 = add nsw i32 %34, 1
  store i32 %35, ptr %33, align 4, !tbaa !16
  br label %36

36:                                               ; preds = %25, %24, %11
  ret void
}

; Function Attrs: mustprogress nounwind uwtable
define linkonce_odr noundef i32 @_ZNK3url9Component3endEv(ptr noundef nonnull align 4 dereferenceable(8) %0) #3 comdat align 2 {
  %2 = alloca ptr, align 8
  store ptr %0, ptr %2, align 8, !tbaa !25
  %3 = load ptr, ptr %2, align 8
  %4 = getelementptr inbounds nuw %"struct.url::Component", ptr %3, i32 0, i32 0
  %5 = load i32, ptr %4, align 4, !tbaa !20
  %6 = getelementptr inbounds nuw %"struct.url::Component", ptr %3, i32 0, i32 1
  %7 = load i32, ptr %6, align 4, !tbaa !22
  %8 = add nsw i32 %5, %7
  ret i32 %8
}

; Function Attrs: inlinehint mustprogress nounwind uwtable
define linkonce_odr noundef i32 @_ZNK3url12CanonOutputTIcE6lengthEv(ptr noundef nonnull align 8 dereferenceable(24) %0) #6 comdat align 2 {
  %2 = alloca ptr, align 8
  store ptr %0, ptr %2, align 8, !tbaa !8
  %3 = load ptr, ptr %2, align 8
  %4 = getelementptr inbounds nuw %"class.url::CanonOutputT", ptr %3, i32 0, i32 3
  %5 = load i32, ptr %4, align 4, !tbaa !16
  ret i32 %5
}

; Function Attrs: mustprogress uwtable
define internal noundef zeroext i1 @_ZN3url12_GLOBAL__N_125DoCanonicalizeIPv6AddressIttEEbPKT_RKNS_9ComponentEPNS_12CanonOutputTIcEEPNS_13CanonHostInfoE(ptr noundef %0, ptr noundef nonnull align 4 dereferenceable(8) %1, ptr noundef %2, ptr noundef %3) #0 {
  %5 = alloca i1, align 1
  %6 = alloca ptr, align 8
  %7 = alloca ptr, align 8
  %8 = alloca ptr, align 8
  %9 = alloca ptr, align 8
  %10 = alloca i32, align 4
  %11 = alloca i32, align 4
  store ptr %0, ptr %6, align 8, !tbaa !35
  store ptr %1, ptr %7, align 8, !tbaa !25
  store ptr %2, ptr %8, align 8, !tbaa !8
  store ptr %3, ptr %9, align 8, !tbaa !41
  %12 = load ptr, ptr %6, align 8, !tbaa !35
  %13 = load ptr, ptr %7, align 8, !tbaa !25
  %14 = load ptr, ptr %9, align 8, !tbaa !41
  %15 = getelementptr inbounds nuw %"struct.url::CanonHostInfo", ptr %14, i32 0, i32 3
  %16 = getelementptr inbounds [16 x i8], ptr %15, i64 0, i64 0
  %17 = call noundef zeroext i1 @_ZN3url19IPv6AddressToNumberEPKtRKNS_9ComponentEPh(ptr noundef %12, ptr noundef nonnull align 4 dereferenceable(8) %13, ptr noundef %16)
  br i1 %17, label %47, label %18

18:                                               ; preds = %4
  call void @llvm.lifetime.start.p0(i64 4, ptr %10) #8
  %19 = load ptr, ptr %7, align 8, !tbaa !25
  %20 = getelementptr inbounds nuw %"struct.url::Component", ptr %19, i32 0, i32 0
  %21 = load i32, ptr %20, align 4, !tbaa !20
  store i32 %21, ptr %10, align 4, !tbaa !10
  br label %22

22:                                               ; preds = %39, %18
  %23 = load i32, ptr %10, align 4, !tbaa !10
  %24 = load ptr, ptr %7, align 8, !tbaa !25
  %25 = call noundef i32 @_ZNK3url9Component3endEv(ptr noundef nonnull align 4 dereferenceable(8) %24)
  %26 = icmp slt i32 %23, %25
  br i1 %26, label %28, label %27

27:                                               ; preds = %22
  store i32 2, ptr %11, align 4
  br label %42

28:                                               ; preds = %22
  %29 = load ptr, ptr %6, align 8, !tbaa !35
  %30 = load i32, ptr %10, align 4, !tbaa !10
  %31 = sext i32 %30 to i64
  %32 = getelementptr inbounds i16, ptr %29, i64 %31
  %33 = load i16, ptr %32, align 2, !tbaa !37
  %34 = zext i16 %33 to i32
  switch i32 %34, label %38 [
    i32 91, label %35
    i32 93, label %35
    i32 58, label %35
  ]

35:                                               ; preds = %28, %28, %28
  %36 = load ptr, ptr %9, align 8, !tbaa !41
  %37 = getelementptr inbounds nuw %"struct.url::CanonHostInfo", ptr %36, i32 0, i32 0
  store i32 1, ptr %37, align 4, !tbaa !43
  store i1 true, ptr %5, align 1
  store i32 1, ptr %11, align 4
  br label %42

38:                                               ; preds = %28
  br label %39

39:                                               ; preds = %38
  %40 = load i32, ptr %10, align 4, !tbaa !10
  %41 = add nsw i32 %40, 1
  store i32 %41, ptr %10, align 4, !tbaa !10
  br label %22, !llvm.loop !49

42:                                               ; preds = %35, %27
  call void @llvm.lifetime.end.p0(i64 4, ptr %10) #8
  %43 = load i32, ptr %11, align 4
  switch i32 %43, label %73 [
    i32 2, label %44
    i32 1, label %71
  ]

44:                                               ; preds = %42
  %45 = load ptr, ptr %9, align 8, !tbaa !41
  %46 = getelementptr inbounds nuw %"struct.url::CanonHostInfo", ptr %45, i32 0, i32 0
  store i32 0, ptr %46, align 4, !tbaa !43
  store i1 false, ptr %5, align 1
  br label %71

47:                                               ; preds = %4
  %48 = load ptr, ptr %8, align 8, !tbaa !8
  %49 = call noundef i32 @_ZNK3url12CanonOutputTIcE6lengthEv(ptr noundef nonnull align 8 dereferenceable(24) %48)
  %50 = load ptr, ptr %9, align 8, !tbaa !41
  %51 = getelementptr inbounds nuw %"struct.url::CanonHostInfo", ptr %50, i32 0, i32 2
  %52 = getelementptr inbounds nuw %"struct.url::Component", ptr %51, i32 0, i32 0
  store i32 %49, ptr %52, align 4, !tbaa !46
  %53 = load ptr, ptr %8, align 8, !tbaa !8
  call void @_ZN3url12CanonOutputTIcE9push_backEc(ptr noundef nonnull align 8 dereferenceable(24) %53, i8 noundef signext 91)
  %54 = load ptr, ptr %9, align 8, !tbaa !41
  %55 = getelementptr inbounds nuw %"struct.url::CanonHostInfo", ptr %54, i32 0, i32 3
  %56 = getelementptr inbounds [16 x i8], ptr %55, i64 0, i64 0
  %57 = load ptr, ptr %8, align 8, !tbaa !8
  call void @_ZN3url17AppendIPv6AddressEPKhPNS_12CanonOutputTIcEE(ptr noundef %56, ptr noundef %57)
  %58 = load ptr, ptr %8, align 8, !tbaa !8
  call void @_ZN3url12CanonOutputTIcE9push_backEc(ptr noundef nonnull align 8 dereferenceable(24) %58, i8 noundef signext 93)
  %59 = load ptr, ptr %8, align 8, !tbaa !8
  %60 = call noundef i32 @_ZNK3url12CanonOutputTIcE6lengthEv(ptr noundef nonnull align 8 dereferenceable(24) %59)
  %61 = load ptr, ptr %9, align 8, !tbaa !41
  %62 = getelementptr inbounds nuw %"struct.url::CanonHostInfo", ptr %61, i32 0, i32 2
  %63 = getelementptr inbounds nuw %"struct.url::Component", ptr %62, i32 0, i32 0
  %64 = load i32, ptr %63, align 4, !tbaa !46
  %65 = sub nsw i32 %60, %64
  %66 = load ptr, ptr %9, align 8, !tbaa !41
  %67 = getelementptr inbounds nuw %"struct.url::CanonHostInfo", ptr %66, i32 0, i32 2
  %68 = getelementptr inbounds nuw %"struct.url::Component", ptr %67, i32 0, i32 1
  store i32 %65, ptr %68, align 4, !tbaa !47
  %69 = load ptr, ptr %9, align 8, !tbaa !41
  %70 = getelementptr inbounds nuw %"struct.url::CanonHostInfo", ptr %69, i32 0, i32 0
  store i32 3, ptr %70, align 4, !tbaa !43
  store i1 true, ptr %5, align 1
  br label %71

71:                                               ; preds = %47, %44, %42
  %72 = load i1, ptr %5, align 1
  ret i1 %72

73:                                               ; preds = %42
  unreachable
}

; Function Attrs: mustprogress uwtable
define internal noundef zeroext i1 @_ZN3url12_GLOBAL__N_125DoCanonicalizeIPv4AddressIttEEbPKT_RKNS_9ComponentEPNS_12CanonOutputTIcEEPNS_13CanonHostInfoE(ptr noundef %0, ptr noundef nonnull align 4 dereferenceable(8) %1, ptr noundef %2, ptr noundef %3) #0 {
  %5 = alloca i1, align 1
  %6 = alloca ptr, align 8
  %7 = alloca ptr, align 8
  %8 = alloca ptr, align 8
  %9 = alloca ptr, align 8
  store ptr %0, ptr %6, align 8, !tbaa !35
  store ptr %1, ptr %7, align 8, !tbaa !25
  store ptr %2, ptr %8, align 8, !tbaa !8
  store ptr %3, ptr %9, align 8, !tbaa !41
  %10 = load ptr, ptr %6, align 8, !tbaa !35
  %11 = load ptr, ptr %7, align 8, !tbaa !25
  %12 = load ptr, ptr %9, align 8, !tbaa !41
  %13 = getelementptr inbounds nuw %"struct.url::CanonHostInfo", ptr %12, i32 0, i32 3
  %14 = getelementptr inbounds [16 x i8], ptr %13, i64 0, i64 0
  %15 = load ptr, ptr %9, align 8, !tbaa !41
  %16 = getelementptr inbounds nuw %"struct.url::CanonHostInfo", ptr %15, i32 0, i32 1
  %17 = call noundef i32 @_ZN3url19IPv4AddressToNumberEPKtRKNS_9ComponentEPhPi(ptr noundef %10, ptr noundef nonnull align 4 dereferenceable(8) %11, ptr noundef %14, ptr noundef %16)
  %18 = load ptr, ptr %9, align 8, !tbaa !41
  %19 = getelementptr inbounds nuw %"struct.url::CanonHostInfo", ptr %18, i32 0, i32 0
  store i32 %17, ptr %19, align 4, !tbaa !43
  %20 = load ptr, ptr %9, align 8, !tbaa !41
  %21 = getelementptr inbounds nuw %"struct.url::CanonHostInfo", ptr %20, i32 0, i32 0
  %22 = load i32, ptr %21, align 4, !tbaa !43
  switch i32 %22, label %44 [
    i32 2, label %23
    i32 1, label %43
  ]

23:                                               ; preds = %4
  %24 = load ptr, ptr %8, align 8, !tbaa !8
  %25 = call noundef i32 @_ZNK3url12CanonOutputTIcE6lengthEv(ptr noundef nonnull align 8 dereferenceable(24) %24)
  %26 = load ptr, ptr %9, align 8, !tbaa !41
  %27 = getelementptr inbounds nuw %"struct.url::CanonHostInfo", ptr %26, i32 0, i32 2
  %28 = getelementptr inbounds nuw %"struct.url::Component", ptr %27, i32 0, i32 0
  store i32 %25, ptr %28, align 4, !tbaa !46
  %29 = load ptr, ptr %9, align 8, !tbaa !41
  %30 = getelementptr inbounds nuw %"struct.url::CanonHostInfo", ptr %29, i32 0, i32 3
  %31 = getelementptr inbounds [16 x i8], ptr %30, i64 0, i64 0
  %32 = load ptr, ptr %8, align 8, !tbaa !8
  call void @_ZN3url17AppendIPv4AddressEPKhPNS_12CanonOutputTIcEE(ptr noundef %31, ptr noundef %32)
  %33 = load ptr, ptr %8, align 8, !tbaa !8
  %34 = call noundef i32 @_ZNK3url12CanonOutputTIcE6lengthEv(ptr noundef nonnull align 8 dereferenceable(24) %33)
  %35 = load ptr, ptr %9, align 8, !tbaa !41
  %36 = getelementptr inbounds nuw %"struct.url::CanonHostInfo", ptr %35, i32 0, i32 2
  %37 = getelementptr inbounds nuw %"struct.url::Component", ptr %36, i32 0, i32 0
  %38 = load i32, ptr %37, align 4, !tbaa !46
  %39 = sub nsw i32 %34, %38
  %40 = load ptr, ptr %9, align 8, !tbaa !41
  %41 = getelementptr inbounds nuw %"struct.url::CanonHostInfo", ptr %40, i32 0, i32 2
  %42 = getelementptr inbounds nuw %"struct.url::Component", ptr %41, i32 0, i32 1
  store i32 %39, ptr %42, align 4, !tbaa !47
  store i1 true, ptr %5, align 1
  br label %45

43:                                               ; preds = %4
  store i1 true, ptr %5, align 1
  br label %45

44:                                               ; preds = %4
  store i1 false, ptr %5, align 1
  br label %45

45:                                               ; preds = %44, %43, %23
  %46 = load i1, ptr %5, align 1
  ret i1 %46
}

; Function Attrs: mustprogress uwtable
define void @_ZN3url21CanonicalizeIPAddressEPKtRKNS_9ComponentEPNS_12CanonOutputTIcEEPNS_13CanonHostInfoE(ptr noundef %0, ptr noundef nonnull align 4 dereferenceable(8) %1, ptr noundef %2, ptr noundef %3) #0 {
  %5 = alloca ptr, align 8
  %6 = alloca ptr, align 8
  %7 = alloca ptr, align 8
  %8 = alloca ptr, align 8
  store ptr %0, ptr %5, align 8, !tbaa !35
  store ptr %1, ptr %6, align 8, !tbaa !25
  store ptr %2, ptr %7, align 8, !tbaa !8
  store ptr %3, ptr %8, align 8, !tbaa !41
  %9 = load ptr, ptr %5, align 8, !tbaa !35
  %10 = load ptr, ptr %6, align 8, !tbaa !25
  %11 = load ptr, ptr %7, align 8, !tbaa !8
  %12 = load ptr, ptr %8, align 8, !tbaa !41
  %13 = call noundef zeroext i1 @_ZN3url12_GLOBAL__N_125DoCanonicalizeIPv4AddressIttEEbPKT_RKNS_9ComponentEPNS_12CanonOutputTIcEEPNS_13CanonHostInfoE(ptr noundef %9, ptr noundef nonnull align 4 dereferenceable(8) %10, ptr noundef %11, ptr noundef %12)
  br i1 %13, label %14, label %15

14:                                               ; preds = %4
  br label %22

15:                                               ; preds = %4
  %16 = load ptr, ptr %5, align 8, !tbaa !35
  %17 = load ptr, ptr %6, align 8, !tbaa !25
  %18 = load ptr, ptr %7, align 8, !tbaa !8
  %19 = load ptr, ptr %8, align 8, !tbaa !41
  %20 = call noundef zeroext i1 @_ZN3url12_GLOBAL__N_125DoCanonicalizeIPv6AddressIttEEbPKT_RKNS_9ComponentEPNS_12CanonOutputTIcEEPNS_13CanonHostInfoE(ptr noundef %16, ptr noundef nonnull align 4 dereferenceable(8) %17, ptr noundef %18, ptr noundef %19)
  br i1 %20, label %21, label %22

21:                                               ; preds = %15
  br label %22

22:                                               ; preds = %14, %21, %15
  ret void
}